gpasm-0.13.7 beta               ik3oilcounter_PIC16F628.asm4-8-2015  11:41:29           PAGE  1


LOC  OBJECT CODE     LINE SOURCE TEXT
  VALUE
 
               00001 ; original File = C:\users\kikom\Scrivania\ik3oilcounter - Copia.hex
               00002 
               00003     processor 16F628A
               00004     #include <P16F828A.INC>
               00001         LIST
               00002 ; P16F628A.INC  Standard Header File, Version 1.10    Microchip Technology, Inc.
               00265         LIST
               00266 
002007 3F29    00005     __config _CP_OFF & _PWRTE_OFF & _WDT_OFF & _XT_OSC & _BODEN_OFF & _LVP_OFF & _MCLRE_ON ;
               00006 ;   EEPROM-Data
2100           00007     Org 0x2100
2100 0000 0000 00008     DE 0x00, 0x00, 0x00, 0x00, 0x01, 0x03               ;  ......
     0000 0000 
     0001 0003 
               00009 
               00010 ; RAM-Variable
  00000020     00011 LRAM_0x0C equ 0x20
  00000021     00012 LRAM_0x0D equ 0x21
  00000022     00013 LRAM_0x0E equ 0x22
  00000023     00014 LRAM_0x0F equ 0x23
  00000024     00015 LRAM_0x10 equ 0x24
  00000025     00016 LRAM_0x11 equ 0x25
  00000026     00017 LRAM_0x12 equ 0x26
  00000027     00018 LRAM_0x13 equ 0x27
  00000028     00019 LRAM_0x14 equ 0x28
  00000029     00020 LRAM_0x15 equ 0x29
  0000002A     00021 LRAM_0x16 equ 0x2A
  0000002B     00022 LRAM_0x17 equ 0x2B
  0000002C     00023 LRAM_0x18 equ 0x2C
  0000002D     00024 LRAM_0x19 equ 0x2D
  0000002E     00025 LRAM_0x1A equ 0x2E
  0000002F     00026 LRAM_0x1B equ 0x2F
  00000030     00027 LRAM_0x1C equ 0x30
  00000031     00028 LRAM_0x1D equ 0x31
  00000032     00029 LRAM_0x1E equ 0x32
  00000033     00030 LRAM_0x1F equ 0x33
  00000034     00031 LRAM_0x20 equ 0x34
  00000035     00032 LRAM_0x21 equ 0x35
  00000036     00033 LRAM_0x22 equ 0x36
  00000037     00034 LRAM_0x23 equ 0x37
  00000038     00035 LRAM_0x24 equ 0x38
  00000039     00036 LRAM_0x25 equ 0x39
  0000003A     00037 LRAM_0x26 equ 0x3A
  0000003B     00038 LRAM_0x27 equ 0x3B
  0000003C     00039 LRAM_0x28 equ 0x3C
  0000003D     00040 LRAM_0x29 equ 0x3D
  0000003E     00041 LRAM_0x2A equ 0x3E
  0000003F     00042 LRAM_0x2B equ 0x3F
  00000044     00043 LRAM_0x30 equ 0x44
  00000045     00044 LRAM_0x31 equ 0x45
  00000046     00045 LRAM_0x32 equ 0x46
  00000047     00046 LRAM_0x33 equ 0x47
  00000048     00047 LRAM_0x34 equ 0x48
  00000049     00048 LRAM_0x35 equ 0x49
gpasm-0.13.7 beta               ik3oilcounter_PIC16F628.asm4-8-2015  11:41:29           PAGE  2


LOC  OBJECT CODE     LINE SOURCE TEXT
  VALUE
 
  0000004A     00049 LRAM_0x36 equ 0x4A
  0000004B     00050 LRAM_0x37 equ 0x4B
  0000004C     00051 LRAM_0x38 equ 0x4C
  0000004D     00052 LRAM_0x39 equ 0x4D
  0000004E     00053 LRAM_0x3A equ 0x4E
  0000004F     00054 LRAM_0x3B equ 0x4F
  00000050     00055 LRAM_0x3C equ 0x50
  00000051     00056 LRAM_0x3D equ 0x51
  00000052     00057 LRAM_0x3E equ 0x52
  00000053     00058 LRAM_0x3F equ 0x53
               00059 
               00060 ; Program
               00061 
0000           00062     Org 0x0000
               00063 
               00064 ;   Reset-Vector
0000 286D      00065     GOTO LADR_0x006D
               00066 
0004           00067     Org 0x0004
               00068 
               00069 ;   Interrupt-Vector
0004 286C      00070     GOTO LADR_0x006C
0005 00071 LADR_0x0005
0005 0782      00072     ADDWF PCL,F          ; !!Program-Counter-Modification
0006 3408      00073     RETLW 0x08           ;   b'00001000'  d'008'
0007 3400      00074     RETLW 0x00           ;   b'00000000'  d'000'
0008 3498      00075     RETLW 0x98           ;   b'10011000'  d'152'
0009 3496      00076     RETLW 0x96           ;   b'10010110'  d'150'
000A 3480      00077     RETLW 0x80           ;   b'10000000'  d'128'
000B 3486      00078     RETLW 0x86           ;   b'10000110'  d'134'
000C 3486      00079     RETLW 0x86           ;   b'10000110'  d'134'
000D 3407      00080     RETLW 0x07           ;   b'00000111'  d'007'
000E 3400      00081     RETLW 0x00           ;   b'00000000'  d'000'
000F 340F      00082     RETLW 0x0F           ;   b'00001111'  d'015'
0010 3442      00083     RETLW 0x42           ;   b'01000010'  d'066'  "B"
0011 3440      00084     RETLW 0x40           ;   b'01000000'  d'064'  "@"
0012 3487      00085     RETLW 0x87           ;   b'10000111'  d'135'
0013 3487      00086     RETLW 0x87           ;   b'10000111'  d'135'
0014 3406      00087     RETLW 0x06           ;   b'00000110'  d'006'
0015 3400      00088     RETLW 0x00           ;   b'00000000'  d'000'
0016 3401      00089     RETLW 0x01           ;   b'00000001'  d'001'
0017 3486      00090     RETLW 0x86           ;   b'10000110'  d'134'
0018 34A0      00091     RETLW 0xA0           ;   b'10100000'  d'160'
0019 34C0      00092     RETLW 0xC0           ;   b'11000000'  d'192'
001A 34C0      00093     RETLW 0xC0           ;   b'11000000'  d'192'
001B 3405      00094     RETLW 0x05           ;   b'00000101'  d'005'
001C 3400      00095     RETLW 0x00           ;   b'00000000'  d'000'
001D 3400      00096     RETLW 0x00           ;   b'00000000'  d'000'
001E 3427      00097     RETLW 0x27           ;   b'00100111'  d'039'  "'"
001F 3410      00098     RETLW 0x10           ;   b'00010000'  d'016'
0020 34C2      00099     RETLW 0xC2           ;   b'11000010'  d'194'
0021 34C1      00100     RETLW 0xC1           ;   b'11000001'  d'193'
0022 3404      00101     RETLW 0x04           ;   b'00000100'  d'004'
0023 3400      00102     RETLW 0x00           ;   b'00000000'  d'000'
gpasm-0.13.7 beta               ik3oilcounter_PIC16F628.asm4-8-2015  11:41:29           PAGE  3


LOC  OBJECT CODE     LINE SOURCE TEXT
  VALUE
 
0024 3400      00103     RETLW 0x00           ;   b'00000000'  d'000'
0025 3403      00104     RETLW 0x03           ;   b'00000011'  d'003'
0026 34E8      00105     RETLW 0xE8           ;   b'11101000'  d'232'
0027 34C3      00106     RETLW 0xC3           ;   b'11000011'  d'195'
0028 34C3      00107     RETLW 0xC3           ;   b'11000011'  d'195'
0029 3403      00108     RETLW 0x03           ;   b'00000011'  d'003'
002A 3400      00109     RETLW 0x00           ;   b'00000000'  d'000'
002B 3400      00110     RETLW 0x00           ;   b'00000000'  d'000'
002C 3400      00111     RETLW 0x00           ;   b'00000000'  d'000'
002D 3464      00112     RETLW 0x64           ;   b'01100100'  d'100'  "d"
002E 34C4      00113     RETLW 0xC4           ;   b'11000100'  d'196'
002F 34C4      00114     RETLW 0xC4           ;   b'11000100'  d'196'
0030 3402      00115     RETLW 0x02           ;   b'00000010'  d'002'
0031 3400      00116     RETLW 0x00           ;   b'00000000'  d'000'
0032 3400      00117     RETLW 0x00           ;   b'00000000'  d'000'
0033 3400      00118     RETLW 0x00           ;   b'00000000'  d'000'
0034 340A      00119     RETLW 0x0A           ;   b'00001010'  d'010'
0035 34C6      00120     RETLW 0xC6           ;   b'11000110'  d'198'
0036 34C5      00121     RETLW 0xC5           ;   b'11000101'  d'197'
0037 3401      00122     RETLW 0x01           ;   b'00000001'  d'001'
0038 3400      00123     RETLW 0x00           ;   b'00000000'  d'000'
0039 3400      00124     RETLW 0x00           ;   b'00000000'  d'000'
003A 3400      00125     RETLW 0x00           ;   b'00000000'  d'000'
003B 3401      00126     RETLW 0x01           ;   b'00000001'  d'001'
003C 34C7      00127     RETLW 0xC7           ;   b'11000111'  d'199'
003D 34C7      00128     RETLW 0xC7           ;   b'11000111'  d'199'
003E 34FF      00129     RETLW 0xFF           ;   b'11111111'  d'255'
003F 00130 LADR_0x003F
003F 0782      00131     ADDWF PCL,F          ; !!Program-Counter-Modification
0040 3401      00132     RETLW 0x01           ;   b'00000001'  d'001'
0041 3456      00133     RETLW 0x56           ;   b'01010110'  d'086'  "V"
0042 3446      00134     RETLW 0x46           ;   b'01000110'  d'070'  "F"
0043 344F      00135     RETLW 0x4F           ;   b'01001111'  d'079'  "O"
0044 342B      00136     RETLW 0x2B           ;   b'00101011'  d'043'  "+"
0045 3449      00137     RETLW 0x49           ;   b'01001001'  d'073'  "I"
0046 3446      00138     RETLW 0x46           ;   b'01000110'  d'070'  "F"
0047 3402      00139     RETLW 0x02           ;   b'00000010'  d'002'
0048 3449      00140     RETLW 0x49           ;   b'01001001'  d'073'  "I"
0049 3446      00141     RETLW 0x46           ;   b'01000110'  d'070'  "F"
004A 342D      00142     RETLW 0x2D           ;   b'00101101'  d'045'  "-"
004B 3456      00143     RETLW 0x56           ;   b'01010110'  d'086'  "V"
004C 3446      00144     RETLW 0x46           ;   b'01000110'  d'070'  "F"
004D 344F      00145     RETLW 0x4F           ;   b'01001111'  d'079'  "O"
004E 3403      00146     RETLW 0x03           ;   b'00000011'  d'003'
004F 3456      00147     RETLW 0x56           ;   b'01010110'  d'086'  "V"
0050 3446      00148     RETLW 0x46           ;   b'01000110'  d'070'  "F"
0051 344F      00149     RETLW 0x4F           ;   b'01001111'  d'079'  "O"
0052 342D      00150     RETLW 0x2D           ;   b'00101101'  d'045'  "-"
0053 3449      00151     RETLW 0x49           ;   b'01001001'  d'073'  "I"
0054 3446      00152     RETLW 0x46           ;   b'01000110'  d'070'  "F"
0055 34FF      00153     RETLW 0xFF           ;   b'11111111'  d'255'
0056 00154 LADR_0x0056
0056 0782      00155     ADDWF PCL,F          ; !!Program-Counter-Modification
0057 3401      00156     RETLW 0x01           ;   b'00000001'  d'001'
gpasm-0.13.7 beta               ik3oilcounter_PIC16F628.asm4-8-2015  11:41:29           PAGE  4


LOC  OBJECT CODE     LINE SOURCE TEXT
  VALUE
 
0058 343A      00157     RETLW 0x3A           ;   b'00111010'  d'058'  ":"
0059 3431      00158     RETLW 0x31           ;   b'00110001'  d'049'  "1"
005A 3430      00159     RETLW 0x30           ;   b'00110000'  d'048'  "0"
005B 3420      00160     RETLW 0x20           ;   b'00100000'  d'032'  " "
005C 3402      00161     RETLW 0x02           ;   b'00000010'  d'002'
005D 343A      00162     RETLW 0x3A           ;   b'00111010'  d'058'  ":"
005E 3433      00163     RETLW 0x33           ;   b'00110011'  d'051'  "3"
005F 3432      00164     RETLW 0x32           ;   b'00110010'  d'050'  "2"
0060 3420      00165     RETLW 0x20           ;   b'00100000'  d'032'  " "
0061 3403      00166     RETLW 0x03           ;   b'00000011'  d'003'
0062 343A      00167     RETLW 0x3A           ;   b'00111010'  d'058'  ":"
0063 3436      00168     RETLW 0x36           ;   b'00110110'  d'054'  "6"
0064 3434      00169     RETLW 0x34           ;   b'00110100'  d'052'  "4"
0065 3420      00170     RETLW 0x20           ;   b'00100000'  d'032'  " "
0066 3404      00171     RETLW 0x04           ;   b'00000100'  d'004'
0067 343A      00172     RETLW 0x3A           ;   b'00111010'  d'058'  ":"
0068 3431      00173     RETLW 0x31           ;   b'00110001'  d'049'  "1"
0069 3432      00174     RETLW 0x32           ;   b'00110010'  d'050'  "2"
006A 3438      00175     RETLW 0x38           ;   b'00111000'  d'056'  "8"
006B 34FF      00176     RETLW 0xFF           ;   b'11111111'  d'255'
006C 00177 LADR_0x006C
006C 0009      00178     RETFIE
006D 00179 LADR_0x006D
006D 0185      00180     CLRF PORTA           ; !!Bank!! PORTA - TRISA
006E 0186      00181     CLRF PORTB           ; !!Bank!! PORTB - TRISB
006F 1683      00182     BSF STATUS,RP0       ; !!Bank Register-Bank(0/1)-Select
0070 30FF      00183     MOVLW 0xFF           ;   b'11111111'  d'255'
0071 0085      00184     MOVWF PORTA          ; !!Bank!! PORTA - TRISA
0072 3000      00185     MOVLW 0x00           ;   b'00000000'  d'000'
0073 0086      00186     MOVWF PORTB          ; !!Bank!! PORTB - TRISB
0074 3027      00187     MOVLW 0x27           ;   b'00100111'  d'039'  "'"
0075 0081      00188     MOVWF TMR0           ; !!Bank!! TMR0 - OPTION_REG
0076 1283      00189     BCF STATUS,RP0       ; !!Bank Register-Bank(0/1)-Select
0077 237B      00190     CALL LADR_0x037B
0078 23BF      00191     CALL LADR_0x03BF
0079 2316      00192     CALL LADR_0x0316
007A 00193 LADR_0x007A
007A 0181      00194     CLRF TMR0            ; !!Bank!! TMR0 - OPTION_REG
007B 01CC      00195     CLRF LRAM_0x38
007C 110B      00196     BCF INTCON,T0IF
007D 1905      00197     BTFSC PORTA,2        ; !!Bank!! PORTA - TRISA
007E 2881      00198     GOTO LADR_0x0081
007F 0B45      00199     DECFSZ LRAM_0x31,W
0080 288C      00200     GOTO LADR_0x008C
0081 00201 LADR_0x0081
0081 1683      00202     BSF STATUS,RP0       ; !!Bank Register-Bank(0/1)-Select
0082 30FF      00203     MOVLW 0xFF           ;   b'11111111'  d'255'
0083 0085      00204     MOVWF PORTA          ; !!Bank!! PORTA - TRISA
0084 1283      00205     BCF STATUS,RP0       ; !!Bank Register-Bank(0/1)-Select
0085 23BF      00206     CALL LADR_0x03BF
0086 1185      00207     BCF PORTA,3          ; !!Bank!! PORTA - TRISA
0087 1683      00208     BSF STATUS,RP0       ; !!Bank Register-Bank(0/1)-Select
0088 30F7      00209     MOVLW 0xF7           ;   b'11110111'  d'247'
0089 0085      00210     MOVWF PORTA          ; !!Bank!! PORTA - TRISA
gpasm-0.13.7 beta               ik3oilcounter_PIC16F628.asm4-8-2015  11:41:29           PAGE  5


LOC  OBJECT CODE     LINE SOURCE TEXT
  VALUE
 
008A 1283      00211     BCF STATUS,RP0       ; !!Bank Register-Bank(0/1)-Select
008B 2896      00212     GOTO LADR_0x0096
008C 00213 LADR_0x008C
008C 1683      00214     BSF STATUS,RP0       ; !!Bank Register-Bank(0/1)-Select
008D 30FF      00215     MOVLW 0xFF           ;   b'11111111'  d'255'
008E 0085      00216     MOVWF PORTA          ; !!Bank!! PORTA - TRISA
008F 1283      00217     BCF STATUS,RP0       ; !!Bank Register-Bank(0/1)-Select
0090 23C6      00218     CALL LADR_0x03C6
0091 1185      00219     BCF PORTA,3          ; !!Bank!! PORTA - TRISA
0092 1683      00220     BSF STATUS,RP0       ; !!Bank Register-Bank(0/1)-Select
0093 30F7      00221     MOVLW 0xF7           ;   b'11110111'  d'247'
0094 0085      00222     MOVWF PORTA          ; !!Bank!! PORTA - TRISA
0095 1283      00223     BCF STATUS,RP0       ; !!Bank Register-Bank(0/1)-Select
0096 00224 LADR_0x0096
0096 20DB      00225     CALL LADR_0x00DB
0097 20EF      00226     CALL LADR_0x00EF
0098 2100      00227     CALL LADR_0x0100
0099 1C05      00228     BTFSS PORTA,0        ; !!Bank!! PORTA - TRISA
009A 289D      00229     GOTO LADR_0x009D
009B 23B3      00230     CALL LADR_0x03B3
009C 287A      00231     GOTO LADR_0x007A
009D 00232 LADR_0x009D
009D 23BF      00233     CALL LADR_0x03BF
009E 1C05      00234     BTFSS PORTA,0        ; !!Bank!! PORTA - TRISA
009F 289D      00235     GOTO LADR_0x009D
00A0 3008      00236     MOVLW 0x08           ;   b'00001000'  d'008'
00A1 1D05      00237     BTFSS PORTA,2        ; !!Bank!! PORTA - TRISA
00A2 3007      00238     MOVLW 0x07           ;   b'00000111'  d'007'
00A3 00D0      00239     MOVWF LRAM_0x3C
00A4 2350      00240     CALL LADR_0x0350
00A5 00241 LADR_0x00A5
00A5 214E      00242     CALL LADR_0x014E
00A6 235A      00243     CALL LADR_0x035A
00A7 00244 LADR_0x00A7
00A7 1C05      00245     BTFSS PORTA,0        ; !!Bank!! PORTA - TRISA
00A8 28B1      00246     GOTO LADR_0x00B1
00A9 1C85      00247     BTFSS PORTA,1        ; !!Bank!! PORTA - TRISA
00AA 28AC      00248     GOTO LADR_0x00AC
00AB 28A7      00249     GOTO LADR_0x00A7
00AC 00250 LADR_0x00AC
00AC 23BF      00251     CALL LADR_0x03BF
00AD 1C85      00252     BTFSS PORTA,1        ; !!Bank!! PORTA - TRISA
00AE 28AC      00253     GOTO LADR_0x00AC
00AF 2164      00254     CALL LADR_0x0164
00B0 28A5      00255     GOTO LADR_0x00A5
00B1 00256 LADR_0x00B1
00B1 23BF      00257     CALL LADR_0x03BF
00B2 1C05      00258     BTFSS PORTA,0        ; !!Bank!! PORTA - TRISA
00B3 28B1      00259     GOTO LADR_0x00B1
00B4 0BD0      00260     DECFSZ LRAM_0x3C,F
00B5 28A5      00261     GOTO LADR_0x00A5
00B6 2355      00262     CALL LADR_0x0355
00B7 00263 LADR_0x00B7
00B7 215C      00264     CALL LADR_0x015C
gpasm-0.13.7 beta               ik3oilcounter_PIC16F628.asm4-8-2015  11:41:29           PAGE  6


LOC  OBJECT CODE     LINE SOURCE TEXT
  VALUE
 
00B8 00265 LADR_0x00B8
00B8 1C05      00266     BTFSS PORTA,0        ; !!Bank!! PORTA - TRISA
00B9 28C5      00267     GOTO LADR_0x00C5
00BA 1C85      00268     BTFSS PORTA,1        ; !!Bank!! PORTA - TRISA
00BB 28BD      00269     GOTO LADR_0x00BD
00BC 28B8      00270     GOTO LADR_0x00B8
00BD 00271 LADR_0x00BD
00BD 23BF      00272     CALL LADR_0x03BF
00BE 1C85      00273     BTFSS PORTA,1        ; !!Bank!! PORTA - TRISA
00BF 28BD      00274     GOTO LADR_0x00BD
00C0 0BC4      00275     DECFSZ LRAM_0x30,F
00C1 28C4      00276     GOTO LADR_0x00C4
00C2 3003      00277     MOVLW 0x03           ;   b'00000011'  d'003'
00C3 00C4      00278     MOVWF LRAM_0x30
00C4 00279 LADR_0x00C4
00C4 28B7      00280     GOTO LADR_0x00B7
00C5 00281 LADR_0x00C5
00C5 23BF      00282     CALL LADR_0x03BF
00C6 1C05      00283     BTFSS PORTA,0        ; !!Bank!! PORTA - TRISA
00C7 28C5      00284     GOTO LADR_0x00C5
00C8 2160      00285     CALL LADR_0x0160
00C9 00286 LADR_0x00C9
00C9 1C05      00287     BTFSS PORTA,0        ; !!Bank!! PORTA - TRISA
00CA 28D6      00288     GOTO LADR_0x00D6
00CB 1C85      00289     BTFSS PORTA,1        ; !!Bank!! PORTA - TRISA
00CC 28CE      00290     GOTO LADR_0x00CE
00CD 28C9      00291     GOTO LADR_0x00C9
00CE 00292 LADR_0x00CE
00CE 23BF      00293     CALL LADR_0x03BF
00CF 1C85      00294     BTFSS PORTA,1        ; !!Bank!! PORTA - TRISA
00D0 28CE      00295     GOTO LADR_0x00CE
00D1 0BC5      00296     DECFSZ LRAM_0x31,F
00D2 28D5      00297     GOTO LADR_0x00D5
00D3 3004      00298     MOVLW 0x04           ;   b'00000100'  d'004'
00D4 00C5      00299     MOVWF LRAM_0x31
00D5 00300 LADR_0x00D5
00D5 28C5      00301     GOTO LADR_0x00C5
00D6 00302 LADR_0x00D6
00D6 23BF      00303     CALL LADR_0x03BF
00D7 1C05      00304     BTFSS PORTA,0        ; !!Bank!! PORTA - TRISA
00D8 28D6      00305     GOTO LADR_0x00D6
00D9 238A      00306     CALL LADR_0x038A
00DA 287A      00307     GOTO LADR_0x007A
00DB 00308 LADR_0x00DB
00DB 0801      00309     MOVF TMR0,W          ; !!Bank!! TMR0 - OPTION_REG
00DC 00CD      00310     MOVWF LRAM_0x39
00DD 1D0B      00311     BTFSS INTCON,T0IF
00DE 28E1      00312     GOTO LADR_0x00E1
00DF 0ACC      00313     INCF LRAM_0x38,F
00E0 110B      00314     BCF INTCON,T0IF
00E1 00315 LADR_0x00E1
00E1 01CF      00316     CLRF LRAM_0x3B
00E2 03CF      00317     DECF LRAM_0x3B,F
00E3 00318 LADR_0x00E3
gpasm-0.13.7 beta               ik3oilcounter_PIC16F628.asm4-8-2015  11:41:29           PAGE  7


LOC  OBJECT CODE     LINE SOURCE TEXT
  VALUE
 
00E3 1185      00319     BCF PORTA,3          ; !!Bank!! PORTA - TRISA
00E4 1585      00320     BSF PORTA,3          ; !!Bank!! PORTA - TRISA
00E5 0801      00321     MOVF TMR0,W          ; !!Bank!! TMR0 - OPTION_REG
00E6 024D      00322     SUBWF LRAM_0x39,W
00E7 1903      00323     BTFSC STATUS,Z
00E8 28EA      00324     GOTO LADR_0x00EA
00E9 28EC      00325     GOTO LADR_0x00EC
00EA 00326 LADR_0x00EA
00EA 0ACF      00327     INCF LRAM_0x3B,F
00EB 28E3      00328     GOTO LADR_0x00E3
00EC 00329 LADR_0x00EC
00EC 094F      00330     COMF LRAM_0x3B,W
00ED 00CE      00331     MOVWF LRAM_0x3A
00EE 0008      00332     RETURN
00EF 00333 LADR_0x00EF
00EF 1905      00334     BTFSC PORTA,2        ; !!Bank!! PORTA - TRISA
00F0 0008      00335     RETURN
00F1 3003      00336     MOVLW 0x03           ;   b'00000011'  d'003'
00F2 0245      00337     SUBWF LRAM_0x31,W
00F3 1D03      00338     BTFSS STATUS,Z
00F4 28F8      00339     GOTO LADR_0x00F8
00F5 3001      00340     MOVLW 0x01           ;   b'00000001'  d'001'
00F6 00A1      00341     MOVWF LRAM_0x0D
00F7 28FE      00342     GOTO LADR_0x00FE
00F8 00343 LADR_0x00F8
00F8 3004      00344     MOVLW 0x04           ;   b'00000100'  d'004'
00F9 0245      00345     SUBWF LRAM_0x31,W
00FA 1D03      00346     BTFSS STATUS,Z
00FB 28FF      00347     GOTO LADR_0x00FF
00FC 3002      00348     MOVLW 0x02           ;   b'00000010'  d'002'
00FD 00A1      00349     MOVWF LRAM_0x0D
00FE 00350 LADR_0x00FE
00FE 223B      00351     CALL LADR_0x023B
00FF 00352 LADR_0x00FF
00FF 0008      00353     RETURN
0100 00354 LADR_0x0100
0100 0844      00355     MOVF LRAM_0x30,W
0101 0BC4      00356     DECFSZ LRAM_0x30,F
0102 2911      00357     GOTO LADR_0x0111
0103 00C4      00358     MOVWF LRAM_0x30
0104 01A2      00359     CLRF LRAM_0x0E
0105 084C      00360     MOVF LRAM_0x38,W
0106 00A3      00361     MOVWF LRAM_0x0F
0107 084D      00362     MOVF LRAM_0x39,W
0108 00A4      00363     MOVWF LRAM_0x10
0109 084E      00364     MOVF LRAM_0x3A,W
010A 00A5      00365     MOVWF LRAM_0x11
010B 300E      00366     MOVLW 0x0E           ;   b'00001110'  d'014'
010C 00C7      00367     MOVWF LRAM_0x33
010D 302C      00368     MOVLW 0x2C           ;   b'00101100'  d'044'  ","
010E 00C6      00369     MOVWF LRAM_0x32
010F 21EF      00370     CALL LADR_0x01EF
0110 2941      00371     GOTO LADR_0x0141
0111 00372 LADR_0x0111
gpasm-0.13.7 beta               ik3oilcounter_PIC16F628.asm4-8-2015  11:41:29           PAGE  8


LOC  OBJECT CODE     LINE SOURCE TEXT
  VALUE
 
0111 0BC4      00373     DECFSZ LRAM_0x30,F
0112 292E      00374     GOTO LADR_0x012E
0113 00C4      00375     MOVWF LRAM_0x30
0114 01A6      00376     CLRF LRAM_0x12
0115 084C      00377     MOVF LRAM_0x38,W
0116 00A7      00378     MOVWF LRAM_0x13
0117 084D      00379     MOVF LRAM_0x39,W
0118 00A8      00380     MOVWF LRAM_0x14
0119 084E      00381     MOVF LRAM_0x3A,W
011A 00A9      00382     MOVWF LRAM_0x15
011B 302C      00383     MOVLW 0x2C           ;   b'00101100'  d'044'  ","
011C 00C6      00384     MOVWF LRAM_0x32
011D 300E      00385     MOVLW 0x0E           ;   b'00001110'  d'014'
011E 00C7      00386     MOVWF LRAM_0x33
011F 3004      00387     MOVLW 0x04           ;   b'00000100'  d'004'
0120 00A1      00388     MOVWF LRAM_0x0D
0121 2242      00389     CALL LADR_0x0242
0122 300E      00390     MOVLW 0x0E           ;   b'00001110'  d'014'
0123 00C7      00391     MOVWF LRAM_0x33
0124 3012      00392     MOVLW 0x12           ;   b'00010010'  d'018'
0125 00C6      00393     MOVWF LRAM_0x32
0126 2211      00394     CALL LADR_0x0211
0127 0B2A      00395     DECFSZ LRAM_0x16,W
0128 2941      00396     GOTO LADR_0x0141
0129 01A2      00397     CLRF LRAM_0x0E
012A 01A3      00398     CLRF LRAM_0x0F
012B 01A4      00399     CLRF LRAM_0x10
012C 01A5      00400     CLRF LRAM_0x11
012D 2941      00401     GOTO LADR_0x0141
012E 00402 LADR_0x012E
012E 00C4      00403     MOVWF LRAM_0x30
012F 01A2      00404     CLRF LRAM_0x0E
0130 084C      00405     MOVF LRAM_0x38,W
0131 00A3      00406     MOVWF LRAM_0x0F
0132 084D      00407     MOVF LRAM_0x39,W
0133 00A4      00408     MOVWF LRAM_0x10
0134 084E      00409     MOVF LRAM_0x3A,W
0135 00A5      00410     MOVWF LRAM_0x11
0136 300E      00411     MOVLW 0x0E           ;   b'00001110'  d'014'
0137 00C7      00412     MOVWF LRAM_0x33
0138 302C      00413     MOVLW 0x2C           ;   b'00101100'  d'044'  ","
0139 00C6      00414     MOVWF LRAM_0x32
013A 2211      00415     CALL LADR_0x0211
013B 0B2A      00416     DECFSZ LRAM_0x16,W
013C 2941      00417     GOTO LADR_0x0141
013D 01A2      00418     CLRF LRAM_0x0E
013E 01A3      00419     CLRF LRAM_0x0F
013F 01A4      00420     CLRF LRAM_0x10
0140 01A5      00421     CLRF LRAM_0x11
0141 00422 LADR_0x0141
0141 300E      00423     MOVLW 0x0E           ;   b'00001110'  d'014'
0142 00C6      00424     MOVWF LRAM_0x32
0143 3028      00425     MOVLW 0x28           ;   b'00101000'  d'040'  "("
0144 00C7      00426     MOVWF LRAM_0x33
gpasm-0.13.7 beta               ik3oilcounter_PIC16F628.asm4-8-2015  11:41:29           PAGE  9


LOC  OBJECT CODE     LINE SOURCE TEXT
  VALUE
 
0145 3004      00427     MOVLW 0x04           ;   b'00000100'  d'004'
0146 00A1      00428     MOVWF LRAM_0x0D
0147 2242      00429     CALL LADR_0x0242
0148 224F      00430     CALL LADR_0x024F
0149 01D3      00431     CLRF LRAM_0x3F
014A 226B      00432     CALL LADR_0x026B
014B 22D2      00433     CALL LADR_0x02D2
014C 2337      00434     CALL LADR_0x0337
014D 0008      00435     RETURN
014E 00436 LADR_0x014E
014E 302C      00437     MOVLW 0x2C           ;   b'00101100'  d'044'  ","
014F 00C6      00438     MOVWF LRAM_0x32
0150 3028      00439     MOVLW 0x28           ;   b'00101000'  d'040'  "("
0151 00C7      00440     MOVWF LRAM_0x33
0152 3004      00441     MOVLW 0x04           ;   b'00000100'  d'004'
0153 00A1      00442     MOVWF LRAM_0x0D
0154 2242      00443     CALL LADR_0x0242
0155 224F      00444     CALL LADR_0x024F
0156 3001      00445     MOVLW 0x01           ;   b'00000001'  d'001'
0157 00D3      00446     MOVWF LRAM_0x3F
0158 226B      00447     CALL LADR_0x026B
0159 22DF      00448     CALL LADR_0x02DF
015A 2337      00449     CALL LADR_0x0337
015B 0008      00450     RETURN
015C 00451 LADR_0x015C
015C 21A4      00452     CALL LADR_0x01A4
015D 22EC      00453     CALL LADR_0x02EC
015E 2337      00454     CALL LADR_0x0337
015F 0008      00455     RETURN
0160 00456 LADR_0x0160
0160 21CC      00457     CALL LADR_0x01CC
0161 2301      00458     CALL LADR_0x0301
0162 2337      00459     CALL LADR_0x0337
0163 0008      00460     RETURN
0164 00461 LADR_0x0164
0164 302C      00462     MOVLW 0x2C           ;   b'00101100'  d'044'  ","
0165 00C6      00463     MOVWF LRAM_0x32
0166 3028      00464     MOVLW 0x28           ;   b'00101000'  d'040'  "("
0167 00C7      00465     MOVWF LRAM_0x33
0168 3004      00466     MOVLW 0x04           ;   b'00000100'  d'004'
0169 00A1      00467     MOVWF LRAM_0x0D
016A 2242      00468     CALL LADR_0x0242
016B 224F      00469     CALL LADR_0x024F
016C 0850      00470     MOVF LRAM_0x3C,W
016D 3C08      00471     SUBLW 0x08           ;   b'00001000'  d'008'
016E 3E20      00472     ADDLW 0x20           ;   b'00100000'  d'032'  " "
016F 0084      00473     MOVWF FSR
0170 0A80      00474     INCF INDF,F
0171 300A      00475     MOVLW 0x0A           ;   b'00001010'  d'010'
0172 0200      00476     SUBWF INDF,W
0173 1903      00477     BTFSC STATUS,Z
0174 0180      00478     CLRF INDF
0175 22B3      00479     CALL LADR_0x02B3
0176 302C      00480     MOVLW 0x2C           ;   b'00101100'  d'044'  ","
gpasm-0.13.7 beta               ik3oilcounter_PIC16F628.asm4-8-2015  11:41:29           PAGE 10


LOC  OBJECT CODE     LINE SOURCE TEXT
  VALUE
 
0177 00C7      00481     MOVWF LRAM_0x33
0178 3028      00482     MOVLW 0x28           ;   b'00101000'  d'040'  "("
0179 00C6      00483     MOVWF LRAM_0x32
017A 3004      00484     MOVLW 0x04           ;   b'00000100'  d'004'
017B 00A1      00485     MOVWF LRAM_0x0D
017C 2242      00486     CALL LADR_0x0242
017D 0008      00487     RETURN
017E 00488 LADR_0x017E
017E 0103      00489     CLRW
017F 00490 LADR_0x017F
017F 00C9      00491     MOVWF LRAM_0x35
0180 2005      00492     CALL LADR_0x0005
0181 00CB      00493     MOVWF LRAM_0x37
0182 30FF      00494     MOVLW 0xFF           ;   b'11111111'  d'255'
0183 024B      00495     SUBWF LRAM_0x37,W
0184 1903      00496     BTFSC STATUS,Z
0185 29A3      00497     GOTO LADR_0x01A3
0186 084B      00498     MOVF LRAM_0x37,W
0187 0248      00499     SUBWF LRAM_0x34,W
0188 1903      00500     BTFSC STATUS,Z
0189 298D      00501     GOTO LADR_0x018D
018A 0849      00502     MOVF LRAM_0x35,W
018B 3E07      00503     ADDLW 0x07           ;   b'00000111'  d'007'
018C 297F      00504     GOTO LADR_0x017F
018D 00505 LADR_0x018D
018D 0849      00506     MOVF LRAM_0x35,W
018E 3E01      00507     ADDLW 0x01           ;   b'00000001'  d'001'
018F 2005      00508     CALL LADR_0x0005
0190 00A6      00509     MOVWF LRAM_0x12
0191 0849      00510     MOVF LRAM_0x35,W
0192 3E02      00511     ADDLW 0x02           ;   b'00000010'  d'002'
0193 2005      00512     CALL LADR_0x0005
0194 00A7      00513     MOVWF LRAM_0x13
0195 0849      00514     MOVF LRAM_0x35,W
0196 3E03      00515     ADDLW 0x03           ;   b'00000011'  d'003'
0197 2005      00516     CALL LADR_0x0005
0198 00A8      00517     MOVWF LRAM_0x14
0199 0849      00518     MOVF LRAM_0x35,W
019A 3E04      00519     ADDLW 0x04           ;   b'00000100'  d'004'
019B 2005      00520     CALL LADR_0x0005
019C 00A9      00521     MOVWF LRAM_0x15
019D 0849      00522     MOVF LRAM_0x35,W
019E 3E05      00523     ADDLW 0x05           ;   b'00000101'  d'005'
019F 1D05      00524     BTFSS PORTA,2        ; !!Bank!! PORTA - TRISA
01A0 3E01      00525     ADDLW 0x01           ;   b'00000001'  d'001'
01A1 2005      00526     CALL LADR_0x0005
01A2 00AA      00527     MOVWF LRAM_0x16
01A3 00528 LADR_0x01A3
01A3 0008      00529     RETURN
01A4 00530 LADR_0x01A4
01A4 0103      00531     CLRW
01A5 00532 LADR_0x01A5
01A5 00C9      00533     MOVWF LRAM_0x35
01A6 203F      00534     CALL LADR_0x003F
gpasm-0.13.7 beta               ik3oilcounter_PIC16F628.asm4-8-2015  11:41:29           PAGE 11


LOC  OBJECT CODE     LINE SOURCE TEXT
  VALUE
 
01A7 00CB      00535     MOVWF LRAM_0x37
01A8 30FF      00536     MOVLW 0xFF           ;   b'11111111'  d'255'
01A9 024B      00537     SUBWF LRAM_0x37,W
01AA 1903      00538     BTFSC STATUS,Z
01AB 29CB      00539     GOTO LADR_0x01CB
01AC 084B      00540     MOVF LRAM_0x37,W
01AD 0244      00541     SUBWF LRAM_0x30,W
01AE 1903      00542     BTFSC STATUS,Z
01AF 29B3      00543     GOTO LADR_0x01B3
01B0 0849      00544     MOVF LRAM_0x35,W
01B1 3E07      00545     ADDLW 0x07           ;   b'00000111'  d'007'
01B2 29A5      00546     GOTO LADR_0x01A5
01B3 00547 LADR_0x01B3
01B3 0849      00548     MOVF LRAM_0x35,W
01B4 3E01      00549     ADDLW 0x01           ;   b'00000001'  d'001'
01B5 203F      00550     CALL LADR_0x003F
01B6 00B6      00551     MOVWF LRAM_0x22
01B7 0849      00552     MOVF LRAM_0x35,W
01B8 3E02      00553     ADDLW 0x02           ;   b'00000010'  d'002'
01B9 203F      00554     CALL LADR_0x003F
01BA 00B7      00555     MOVWF LRAM_0x23
01BB 0849      00556     MOVF LRAM_0x35,W
01BC 3E03      00557     ADDLW 0x03           ;   b'00000011'  d'003'
01BD 203F      00558     CALL LADR_0x003F
01BE 00B8      00559     MOVWF LRAM_0x24
01BF 0849      00560     MOVF LRAM_0x35,W
01C0 3E04      00561     ADDLW 0x04           ;   b'00000100'  d'004'
01C1 203F      00562     CALL LADR_0x003F
01C2 00B9      00563     MOVWF LRAM_0x25
01C3 0849      00564     MOVF LRAM_0x35,W
01C4 3E05      00565     ADDLW 0x05           ;   b'00000101'  d'005'
01C5 203F      00566     CALL LADR_0x003F
01C6 00BA      00567     MOVWF LRAM_0x26
01C7 0849      00568     MOVF LRAM_0x35,W
01C8 3E06      00569     ADDLW 0x06           ;   b'00000110'  d'006'
01C9 203F      00570     CALL LADR_0x003F
01CA 00BB      00571     MOVWF LRAM_0x27
01CB 00572 LADR_0x01CB
01CB 0008      00573     RETURN
01CC 00574 LADR_0x01CC
01CC 0103      00575     CLRW
01CD 00576 LADR_0x01CD
01CD 00C9      00577     MOVWF LRAM_0x35
01CE 2056      00578     CALL LADR_0x0056
01CF 00CB      00579     MOVWF LRAM_0x37
01D0 30FF      00580     MOVLW 0xFF           ;   b'11111111'  d'255'
01D1 024B      00581     SUBWF LRAM_0x37,W
01D2 1903      00582     BTFSC STATUS,Z
01D3 29EE      00583     GOTO LADR_0x01EE
01D4 084B      00584     MOVF LRAM_0x37,W
01D5 0245      00585     SUBWF LRAM_0x31,W
01D6 1903      00586     BTFSC STATUS,Z
01D7 29DB      00587     GOTO LADR_0x01DB
01D8 0849      00588     MOVF LRAM_0x35,W
gpasm-0.13.7 beta               ik3oilcounter_PIC16F628.asm4-8-2015  11:41:29           PAGE 12


LOC  OBJECT CODE     LINE SOURCE TEXT
  VALUE
 
01D9 3E05      00589     ADDLW 0x05           ;   b'00000101'  d'005'
01DA 29CD      00590     GOTO LADR_0x01CD
01DB 00591 LADR_0x01DB
01DB 0849      00592     MOVF LRAM_0x35,W
01DC 3E01      00593     ADDLW 0x01           ;   b'00000001'  d'001'
01DD 2056      00594     CALL LADR_0x0056
01DE 00B6      00595     MOVWF LRAM_0x22
01DF 0849      00596     MOVF LRAM_0x35,W
01E0 3E02      00597     ADDLW 0x02           ;   b'00000010'  d'002'
01E1 2056      00598     CALL LADR_0x0056
01E2 00B7      00599     MOVWF LRAM_0x23
01E3 0849      00600     MOVF LRAM_0x35,W
01E4 3E03      00601     ADDLW 0x03           ;   b'00000011'  d'003'
01E5 2056      00602     CALL LADR_0x0056
01E6 00B8      00603     MOVWF LRAM_0x24
01E7 0849      00604     MOVF LRAM_0x35,W
01E8 3E04      00605     ADDLW 0x04           ;   b'00000100'  d'004'
01E9 2056      00606     CALL LADR_0x0056
01EA 00B9      00607     MOVWF LRAM_0x25
01EB 3020      00608     MOVLW 0x20           ;   b'00100000'  d'032'  " "
01EC 00BA      00609     MOVWF LRAM_0x26
01ED 00BB      00610     MOVWF LRAM_0x27
01EE 00611 LADR_0x01EE
01EE 0008      00612     RETURN
01EF 00613 LADR_0x01EF
01EF 01AA      00614     CLRF LRAM_0x16
01F0 3004      00615     MOVLW 0x04           ;   b'00000100'  d'004'
01F1 00A1      00616     MOVWF LRAM_0x0D
01F2 3003      00617     MOVLW 0x03           ;   b'00000011'  d'003'
01F3 07C6      00618     ADDWF LRAM_0x32,F
01F4 3003      00619     MOVLW 0x03           ;   b'00000011'  d'003'
01F5 07C7      00620     ADDWF LRAM_0x33,F
01F6 00621 LADR_0x01F6
01F6 0847      00622     MOVF LRAM_0x33,W
01F7 0084      00623     MOVWF FSR
01F8 082A      00624     MOVF LRAM_0x16,W
01F9 0780      00625     ADDWF INDF,F
01FA 01AA      00626     CLRF LRAM_0x16
01FB 1C03      00627     BTFSS STATUS,C
01FC 29FF      00628     GOTO LADR_0x01FF
01FD 3001      00629     MOVLW 0x01           ;   b'00000001'  d'001'
01FE 00AA      00630     MOVWF LRAM_0x16
01FF 00631 LADR_0x01FF
01FF 0846      00632     MOVF LRAM_0x32,W
0200 0084      00633     MOVWF FSR
0201 0800      00634     MOVF INDF,W
0202 00C9      00635     MOVWF LRAM_0x35
0203 0847      00636     MOVF LRAM_0x33,W
0204 0084      00637     MOVWF FSR
0205 0849      00638     MOVF LRAM_0x35,W
0206 0780      00639     ADDWF INDF,F
0207 1C03      00640     BTFSS STATUS,C
0208 2A0B      00641     GOTO LADR_0x020B
0209 3001      00642     MOVLW 0x01           ;   b'00000001'  d'001'
gpasm-0.13.7 beta               ik3oilcounter_PIC16F628.asm4-8-2015  11:41:29           PAGE 13


LOC  OBJECT CODE     LINE SOURCE TEXT
  VALUE
 
020A 00AA      00643     MOVWF LRAM_0x16
020B 00644 LADR_0x020B
020B 0BA1      00645     DECFSZ LRAM_0x0D,F
020C 2A0E      00646     GOTO LADR_0x020E
020D 0008      00647     RETURN
020E 00648 LADR_0x020E
020E 03C6      00649     DECF LRAM_0x32,F
020F 03C7      00650     DECF LRAM_0x33,F
0210 29F6      00651     GOTO LADR_0x01F6
0211 00652 LADR_0x0211
0211 01AA      00653     CLRF LRAM_0x16
0212 3004      00654     MOVLW 0x04           ;   b'00000100'  d'004'
0213 00A1      00655     MOVWF LRAM_0x0D
0214 3003      00656     MOVLW 0x03           ;   b'00000011'  d'003'
0215 07C6      00657     ADDWF LRAM_0x32,F
0216 3003      00658     MOVLW 0x03           ;   b'00000011'  d'003'
0217 07C7      00659     ADDWF LRAM_0x33,F
0218 00660 LADR_0x0218
0218 0847      00661     MOVF LRAM_0x33,W
0219 0084      00662     MOVWF FSR
021A 082A      00663     MOVF LRAM_0x16,W
021B 0280      00664     SUBWF INDF,F
021C 01AA      00665     CLRF LRAM_0x16
021D 1803      00666     BTFSC STATUS,C
021E 2A21      00667     GOTO LADR_0x0221
021F 3001      00668     MOVLW 0x01           ;   b'00000001'  d'001'
0220 00AA      00669     MOVWF LRAM_0x16
0221 00670 LADR_0x0221
0221 0846      00671     MOVF LRAM_0x32,W
0222 0084      00672     MOVWF FSR
0223 0800      00673     MOVF INDF,W
0224 00C9      00674     MOVWF LRAM_0x35
0225 0847      00675     MOVF LRAM_0x33,W
0226 0084      00676     MOVWF FSR
0227 0849      00677     MOVF LRAM_0x35,W
0228 0280      00678     SUBWF INDF,F
0229 1803      00679     BTFSC STATUS,C
022A 2A2D      00680     GOTO LADR_0x022D
022B 3001      00681     MOVLW 0x01           ;   b'00000001'  d'001'
022C 00AA      00682     MOVWF LRAM_0x16
022D 00683 LADR_0x022D
022D 0BA1      00684     DECFSZ LRAM_0x0D,F
022E 2A30      00685     GOTO LADR_0x0230
022F 0008      00686     RETURN
0230 00687 LADR_0x0230
0230 03C6      00688     DECF LRAM_0x32,F
0231 03C7      00689     DECF LRAM_0x33,F
0232 2A18      00690     GOTO LADR_0x0218
0233 00691 LADR_0x0233
0233 01AB      00692     CLRF LRAM_0x17
0234 00693 LADR_0x0234
0234 2211      00694     CALL LADR_0x0211
0235 0AAB      00695     INCF LRAM_0x17,F
0236 0B2A      00696     DECFSZ LRAM_0x16,W
gpasm-0.13.7 beta               ik3oilcounter_PIC16F628.asm4-8-2015  11:41:29           PAGE 14


LOC  OBJECT CODE     LINE SOURCE TEXT
  VALUE
 
0237 2A34      00697     GOTO LADR_0x0234
0238 21EF      00698     CALL LADR_0x01EF
0239 03AB      00699     DECF LRAM_0x17,F
023A 0008      00700     RETURN
023B 00701 LADR_0x023B
023B 1003      00702     BCF STATUS,C
023C 0DCE      00703     RLF LRAM_0x3A,F
023D 0DCD      00704     RLF LRAM_0x39,F
023E 0DCC      00705     RLF LRAM_0x38,F
023F 0BA1      00706     DECFSZ LRAM_0x0D,F
0240 2A3B      00707     GOTO LADR_0x023B
0241 0008      00708     RETURN
0242 00709 LADR_0x0242
0242 0846      00710     MOVF LRAM_0x32,W
0243 0084      00711     MOVWF FSR
0244 0800      00712     MOVF INDF,W
0245 00C9      00713     MOVWF LRAM_0x35
0246 0847      00714     MOVF LRAM_0x33,W
0247 0084      00715     MOVWF FSR
0248 0849      00716     MOVF LRAM_0x35,W
0249 0080      00717     MOVWF INDF
024A 0AC6      00718     INCF LRAM_0x32,F
024B 0AC7      00719     INCF LRAM_0x33,F
024C 0BA1      00720     DECFSZ LRAM_0x0D,F
024D 2A42      00721     GOTO LADR_0x0242
024E 0008      00722     RETURN
024F 00723 LADR_0x024F
024F 083C      00724     MOVF LRAM_0x28,W
0250 00A2      00725     MOVWF LRAM_0x0E
0251 083D      00726     MOVF LRAM_0x29,W
0252 00A3      00727     MOVWF LRAM_0x0F
0253 083E      00728     MOVF LRAM_0x2A,W
0254 00A4      00729     MOVWF LRAM_0x10
0255 083F      00730     MOVF LRAM_0x2B,W
0256 00A5      00731     MOVWF LRAM_0x11
0257 3008      00732     MOVLW 0x08           ;   b'00001000'  d'008'
0258 00C8      00733     MOVWF LRAM_0x34
0259 3020      00734     MOVLW 0x20           ;   b'00100000'  d'032'  " "
025A 0084      00735     MOVWF FSR
025B 300E      00736     MOVLW 0x0E           ;   b'00001110'  d'014'
025C 00C7      00737     MOVWF LRAM_0x33
025D 3012      00738     MOVLW 0x12           ;   b'00010010'  d'018'
025E 00C6      00739     MOVWF LRAM_0x32
025F 00740 LADR_0x025F
025F 0804      00741     MOVF FSR,W
0260 00CA      00742     MOVWF LRAM_0x36
0261 217E      00743     CALL LADR_0x017E
0262 2233      00744     CALL LADR_0x0233
0263 084A      00745     MOVF LRAM_0x36,W
0264 0084      00746     MOVWF FSR
0265 082B      00747     MOVF LRAM_0x17,W
0266 0080      00748     MOVWF INDF
0267 0A84      00749     INCF FSR,F
0268 0BC8      00750     DECFSZ LRAM_0x34,F
gpasm-0.13.7 beta               ik3oilcounter_PIC16F628.asm4-8-2015  11:41:29           PAGE 15


LOC  OBJECT CODE     LINE SOURCE TEXT
  VALUE
 
0269 2A5F      00751     GOTO LADR_0x025F
026A 0008      00752     RETURN
026B 00753 LADR_0x026B
026B 1D05      00754     BTFSS PORTA,2        ; !!Bank!! PORTA - TRISA
026C 2A7B      00755     GOTO LADR_0x027B
026D 3020      00756     MOVLW 0x20           ;   b'00100000'  d'032'  " "
026E 00C6      00757     MOVWF LRAM_0x32
026F 301E      00758     MOVLW 0x1E           ;   b'00011110'  d'030'
0270 00C7      00759     MOVWF LRAM_0x33
0271 3003      00760     MOVLW 0x03           ;   b'00000011'  d'003'
0272 00A1      00761     MOVWF LRAM_0x0D
0273 2242      00762     CALL LADR_0x0242
0274 3023      00763     MOVLW 0x23           ;   b'00100011'  d'035'  "#"
0275 00C6      00764     MOVWF LRAM_0x32
0276 3022      00765     MOVLW 0x22           ;   b'00100010'  d'034'  """
0277 00C7      00766     MOVWF LRAM_0x33
0278 3003      00767     MOVLW 0x03           ;   b'00000011'  d'003'
0279 00A1      00768     MOVWF LRAM_0x0D
027A 2A88      00769     GOTO LADR_0x0288
027B 00770 LADR_0x027B
027B 3020      00771     MOVLW 0x20           ;   b'00100000'  d'032'  " "
027C 00C6      00772     MOVWF LRAM_0x32
027D 301E      00773     MOVLW 0x1E           ;   b'00011110'  d'030'
027E 00C7      00774     MOVWF LRAM_0x33
027F 3004      00775     MOVLW 0x04           ;   b'00000100'  d'004'
0280 00A1      00776     MOVWF LRAM_0x0D
0281 2242      00777     CALL LADR_0x0242
0282 3024      00778     MOVLW 0x24           ;   b'00100100'  d'036'  "$"
0283 00C6      00779     MOVWF LRAM_0x32
0284 3023      00780     MOVLW 0x23           ;   b'00100011'  d'035'  "#"
0285 00C7      00781     MOVWF LRAM_0x33
0286 3003      00782     MOVLW 0x03           ;   b'00000011'  d'003'
0287 00A1      00783     MOVWF LRAM_0x0D
0288 00784 LADR_0x0288
0288 2242      00785     CALL LADR_0x0242
0289 228B      00786     CALL LADR_0x028B
028A 0008      00787     RETURN
028B 00788 LADR_0x028B
028B 300A      00789     MOVLW 0x0A           ;   b'00001010'  d'010'
028C 00A1      00790     MOVWF LRAM_0x0D
028D 301E      00791     MOVLW 0x1E           ;   b'00011110'  d'030'
028E 0084      00792     MOVWF FSR
028F 00793 LADR_0x028F
028F 3007      00794     MOVLW 0x07           ;   b'00000111'  d'007'
0290 1D05      00795     BTFSS PORTA,2        ; !!Bank!! PORTA - TRISA
0291 3006      00796     MOVLW 0x06           ;   b'00000110'  d'006'
0292 0221      00797     SUBWF LRAM_0x0D,W
0293 1903      00798     BTFSC STATUS,Z
0294 2A9B      00799     GOTO LADR_0x029B
0295 3003      00800     MOVLW 0x03           ;   b'00000011'  d'003'
0296 1D05      00801     BTFSS PORTA,2        ; !!Bank!! PORTA - TRISA
0297 3002      00802     MOVLW 0x02           ;   b'00000010'  d'002'
0298 0221      00803     SUBWF LRAM_0x0D,W
0299 1D03      00804     BTFSS STATUS,Z
gpasm-0.13.7 beta               ik3oilcounter_PIC16F628.asm4-8-2015  11:41:29           PAGE 16


LOC  OBJECT CODE     LINE SOURCE TEXT
  VALUE
 
029A 2AA0      00805     GOTO LADR_0x02A0
029B 00806 LADR_0x029B
029B 3020      00807     MOVLW 0x20           ;   b'00100000'  d'032'  " "
029C 08D3      00808     MOVF LRAM_0x3F,F
029D 1D03      00809     BTFSS STATUS,Z
029E 302E      00810     MOVLW 0x2E           ;   b'00101110'  d'046'  "."
029F 2AAD      00811     GOTO LADR_0x02AD
02A0 00812 LADR_0x02A0
02A0 0800      00813     MOVF INDF,W
02A1 1903      00814     BTFSC STATUS,Z
02A2 2AA4      00815     GOTO LADR_0x02A4
02A3 2AAB      00816     GOTO LADR_0x02AB
02A4 00817 LADR_0x02A4
02A4 08D3      00818     MOVF LRAM_0x3F,F
02A5 1D03      00819     BTFSS STATUS,Z
02A6 2AA9      00820     GOTO LADR_0x02A9
02A7 3E20      00821     ADDLW 0x20           ;   b'00100000'  d'032'  " "
02A8 2AAD      00822     GOTO LADR_0x02AD
02A9 00823 LADR_0x02A9
02A9 3E30      00824     ADDLW 0x30           ;   b'00110000'  d'048'  "0"
02AA 2AAD      00825     GOTO LADR_0x02AD
02AB 00826 LADR_0x02AB
02AB 0AD3      00827     INCF LRAM_0x3F,F
02AC 3E30      00828     ADDLW 0x30           ;   b'00110000'  d'048'  "0"
02AD 00829 LADR_0x02AD
02AD 0080      00830     MOVWF INDF
02AE 0BA1      00831     DECFSZ LRAM_0x0D,F
02AF 2AB1      00832     GOTO LADR_0x02B1
02B0 0008      00833     RETURN
02B1 00834 LADR_0x02B1
02B1 0A84      00835     INCF FSR,F
02B2 2A8F      00836     GOTO LADR_0x028F
02B3 00837 LADR_0x02B3
02B3 01BC      00838     CLRF LRAM_0x28
02B4 01BD      00839     CLRF LRAM_0x29
02B5 01BE      00840     CLRF LRAM_0x2A
02B6 01BF      00841     CLRF LRAM_0x2B
02B7 3008      00842     MOVLW 0x08           ;   b'00001000'  d'008'
02B8 00C8      00843     MOVWF LRAM_0x34
02B9 3020      00844     MOVLW 0x20           ;   b'00100000'  d'032'  " "
02BA 0084      00845     MOVWF FSR
02BB 3028      00846     MOVLW 0x28           ;   b'00101000'  d'040'  "("
02BC 00C7      00847     MOVWF LRAM_0x33
02BD 3012      00848     MOVLW 0x12           ;   b'00010010'  d'018'
02BE 00C6      00849     MOVWF LRAM_0x32
02BF 00850 LADR_0x02BF
02BF 0804      00851     MOVF FSR,W
02C0 00CA      00852     MOVWF LRAM_0x36
02C1 217E      00853     CALL LADR_0x017E
02C2 084A      00854     MOVF LRAM_0x36,W
02C3 0084      00855     MOVWF FSR
02C4 0800      00856     MOVF INDF,W
02C5 00D1      00857     MOVWF LRAM_0x3D
02C6 00858 LADR_0x02C6
gpasm-0.13.7 beta               ik3oilcounter_PIC16F628.asm4-8-2015  11:41:29           PAGE 17


LOC  OBJECT CODE     LINE SOURCE TEXT
  VALUE
 
02C6 08D1      00859     MOVF LRAM_0x3D,F
02C7 1903      00860     BTFSC STATUS,Z
02C8 2ACC      00861     GOTO LADR_0x02CC
02C9 21EF      00862     CALL LADR_0x01EF
02CA 03D1      00863     DECF LRAM_0x3D,F
02CB 2AC6      00864     GOTO LADR_0x02C6
02CC 00865 LADR_0x02CC
02CC 084A      00866     MOVF LRAM_0x36,W
02CD 0084      00867     MOVWF FSR
02CE 0A84      00868     INCF FSR,F
02CF 0BC8      00869     DECFSZ LRAM_0x34,F
02D0 2ABF      00870     GOTO LADR_0x02BF
02D1 0008      00871     RETURN
02D2 00872 LADR_0x02D2
02D2 3046      00873     MOVLW 0x46           ;   b'01000110'  d'070'  "F"
02D3 00AC      00874     MOVWF LRAM_0x18
02D4 3072      00875     MOVLW 0x72           ;   b'01110010'  d'114'  "r"
02D5 00AD      00876     MOVWF LRAM_0x19
02D6 3065      00877     MOVLW 0x65           ;   b'01100101'  d'101'  "e"
02D7 00AE      00878     MOVWF LRAM_0x1A
02D8 3071      00879     MOVLW 0x71           ;   b'01110001'  d'113'  "q"
02D9 00AF      00880     MOVWF LRAM_0x1B
02DA 302E      00881     MOVLW 0x2E           ;   b'00101110'  d'046'  "."
02DB 00B0      00882     MOVWF LRAM_0x1C
02DC 303A      00883     MOVLW 0x3A           ;   b'00111010'  d'058'  ":"
02DD 00B1      00884     MOVWF LRAM_0x1D
02DE 0008      00885     RETURN
02DF 00886 LADR_0x02DF
02DF 3049      00887     MOVLW 0x49           ;   b'01001001'  d'073'  "I"
02E0 00AC      00888     MOVWF LRAM_0x18
02E1 3046      00889     MOVLW 0x46           ;   b'01000110'  d'070'  "F"
02E2 00AD      00890     MOVWF LRAM_0x19
02E3 3073      00891     MOVLW 0x73           ;   b'01110011'  d'115'  "s"
02E4 00AE      00892     MOVWF LRAM_0x1A
02E5 3065      00893     MOVLW 0x65           ;   b'01100101'  d'101'  "e"
02E6 00AF      00894     MOVWF LRAM_0x1B
02E7 3074      00895     MOVLW 0x74           ;   b'01110100'  d'116'  "t"
02E8 00B0      00896     MOVWF LRAM_0x1C
02E9 303A      00897     MOVLW 0x3A           ;   b'00111010'  d'058'  ":"
02EA 00B1      00898     MOVWF LRAM_0x1D
02EB 0008      00899     RETURN
02EC 00900 LADR_0x02EC
02EC 304D      00901     MOVLW 0x4D           ;   b'01001101'  d'077'  "M"
02ED 00AC      00902     MOVWF LRAM_0x18
02EE 306F      00903     MOVLW 0x6F           ;   b'01101111'  d'111'  "o"
02EF 00AD      00904     MOVWF LRAM_0x19
02F0 3064      00905     MOVLW 0x64           ;   b'01100100'  d'100'  "d"
02F1 00AE      00906     MOVWF LRAM_0x1A
02F2 3065      00907     MOVLW 0x65           ;   b'01100101'  d'101'  "e"
02F3 00AF      00908     MOVWF LRAM_0x1B
02F4 3020      00909     MOVLW 0x20           ;   b'00100000'  d'032'  " "
02F5 00B0      00910     MOVWF LRAM_0x1C
02F6 3073      00911     MOVLW 0x73           ;   b'01110011'  d'115'  "s"
02F7 00B1      00912     MOVWF LRAM_0x1D
gpasm-0.13.7 beta               ik3oilcounter_PIC16F628.asm4-8-2015  11:41:29           PAGE 18


LOC  OBJECT CODE     LINE SOURCE TEXT
  VALUE
 
02F8 3065      00913     MOVLW 0x65           ;   b'01100101'  d'101'  "e"
02F9 00B2      00914     MOVWF LRAM_0x1E
02FA 3074      00915     MOVLW 0x74           ;   b'01110100'  d'116'  "t"
02FB 00B3      00916     MOVWF LRAM_0x1F
02FC 303A      00917     MOVLW 0x3A           ;   b'00111010'  d'058'  ":"
02FD 00B4      00918     MOVWF LRAM_0x20
02FE 3020      00919     MOVLW 0x20           ;   b'00100000'  d'032'  " "
02FF 00B5      00920     MOVWF LRAM_0x21
0300 0008      00921     RETURN
0301 00922 LADR_0x0301
0301 3050      00923     MOVLW 0x50           ;   b'01010000'  d'080'  "P"
0302 00AC      00924     MOVWF LRAM_0x18
0303 3072      00925     MOVLW 0x72           ;   b'01110010'  d'114'  "r"
0304 00AD      00926     MOVWF LRAM_0x19
0305 3065      00927     MOVLW 0x65           ;   b'01100101'  d'101'  "e"
0306 00AE      00928     MOVWF LRAM_0x1A
0307 3073      00929     MOVLW 0x73           ;   b'01110011'  d'115'  "s"
0308 00AF      00930     MOVWF LRAM_0x1B
0309 3063      00931     MOVLW 0x63           ;   b'01100011'  d'099'  "c"
030A 00B0      00932     MOVWF LRAM_0x1C
030B 3061      00933     MOVLW 0x61           ;   b'01100001'  d'097'  "a"
030C 00B1      00934     MOVWF LRAM_0x1D
030D 306C      00935     MOVLW 0x6C           ;   b'01101100'  d'108'  "l"
030E 00B2      00936     MOVWF LRAM_0x1E
030F 3065      00937     MOVLW 0x65           ;   b'01100101'  d'101'  "e"
0310 00B3      00938     MOVWF LRAM_0x1F
0311 3072      00939     MOVLW 0x72           ;   b'01110010'  d'114'  "r"
0312 00B4      00940     MOVWF LRAM_0x20
0313 3020      00941     MOVLW 0x20           ;   b'00100000'  d'032'  " "
0314 00B5      00942     MOVWF LRAM_0x21
0315 0008      00943     RETURN
0316 00944 LADR_0x0316
0316 3023      00945     MOVLW 0x23           ;   b'00100011'  d'035'  "#"
0317 0086      00946     MOVWF PORTB          ; !!Bank!! PORTB - TRISB
0318 1286      00947     BCF PORTB,5          ; !!Bank!! PORTB - TRISB
0319 23BF      00948     CALL LADR_0x03BF
031A 3023      00949     MOVLW 0x23           ;   b'00100011'  d'035'  "#"
031B 0086      00950     MOVWF PORTB          ; !!Bank!! PORTB - TRISB
031C 1286      00951     BCF PORTB,5          ; !!Bank!! PORTB - TRISB
031D 23BF      00952     CALL LADR_0x03BF
031E 3023      00953     MOVLW 0x23           ;   b'00100011'  d'035'  "#"
031F 0086      00954     MOVWF PORTB          ; !!Bank!! PORTB - TRISB
0320 1286      00955     BCF PORTB,5          ; !!Bank!! PORTB - TRISB
0321 23BF      00956     CALL LADR_0x03BF
0322 3022      00957     MOVLW 0x22           ;   b'00100010'  d'034'  """
0323 0086      00958     MOVWF PORTB          ; !!Bank!! PORTB - TRISB
0324 1286      00959     BCF PORTB,5          ; !!Bank!! PORTB - TRISB
0325 23BF      00960     CALL LADR_0x03BF
0326 3028      00961     MOVLW 0x28           ;   b'00101000'  d'040'  "("
0327 00A0      00962     MOVWF LRAM_0x0C
0328 2361      00963     CALL LADR_0x0361
0329 23BF      00964     CALL LADR_0x03BF
032A 3006      00965     MOVLW 0x06           ;   b'00000110'  d'006'
032B 00A0      00966     MOVWF LRAM_0x0C
gpasm-0.13.7 beta               ik3oilcounter_PIC16F628.asm4-8-2015  11:41:29           PAGE 19


LOC  OBJECT CODE     LINE SOURCE TEXT
  VALUE
 
032C 2361      00967     CALL LADR_0x0361
032D 23BF      00968     CALL LADR_0x03BF
032E 300C      00969     MOVLW 0x0C           ;   b'00001100'  d'012'
032F 00A0      00970     MOVWF LRAM_0x0C
0330 2361      00971     CALL LADR_0x0361
0331 23BF      00972     CALL LADR_0x03BF
0332 3001      00973     MOVLW 0x01           ;   b'00000001'  d'001'
0333 00A0      00974     MOVWF LRAM_0x0C
0334 2361      00975     CALL LADR_0x0361
0335 23BF      00976     CALL LADR_0x03BF
0336 0008      00977     RETURN
0337 00978 LADR_0x0337
0337 3080      00979     MOVLW 0x80           ;   b'10000000'  d'128'
0338 00A0      00980     MOVWF LRAM_0x0C
0339 2361      00981     CALL LADR_0x0361
033A 3008      00982     MOVLW 0x08           ;   b'00001000'  d'008'
033B 00A1      00983     MOVWF LRAM_0x0D
033C 3018      00984     MOVLW 0x18           ;   b'00011000'  d'024'
033D 0084      00985     MOVWF FSR
033E 00986 LADR_0x033E
033E 0800      00987     MOVF INDF,W
033F 00A0      00988     MOVWF LRAM_0x0C
0340 236E      00989     CALL LADR_0x036E
0341 0A84      00990     INCF FSR,F
0342 0BA1      00991     DECFSZ LRAM_0x0D,F
0343 2B3E      00992     GOTO LADR_0x033E
0344 30C0      00993     MOVLW 0xC0           ;   b'11000000'  d'192'
0345 00A0      00994     MOVWF LRAM_0x0C
0346 2361      00995     CALL LADR_0x0361
0347 3008      00996     MOVLW 0x08           ;   b'00001000'  d'008'
0348 00A1      00997     MOVWF LRAM_0x0D
0349 00998 LADR_0x0349
0349 0800      00999     MOVF INDF,W
034A 00A0      01000     MOVWF LRAM_0x0C
034B 236E      01001     CALL LADR_0x036E
034C 0A84      01002     INCF FSR,F
034D 0BA1      01003     DECFSZ LRAM_0x0D,F
034E 2B49      01004     GOTO LADR_0x0349
034F 0008      01005     RETURN
0350 01006 LADR_0x0350
0350 300D      01007     MOVLW 0x0D           ;   b'00001101'  d'013'
0351 00A0      01008     MOVWF LRAM_0x0C
0352 2361      01009     CALL LADR_0x0361
0353 23BF      01010     CALL LADR_0x03BF
0354 0008      01011     RETURN
0355 01012 LADR_0x0355
0355 300C      01013     MOVLW 0x0C           ;   b'00001100'  d'012'
0356 00A0      01014     MOVWF LRAM_0x0C
0357 2361      01015     CALL LADR_0x0361
0358 23BF      01016     CALL LADR_0x03BF
0359 0008      01017     RETURN
035A 01018 LADR_0x035A
035A 0850      01019     MOVF LRAM_0x3C,W
035B 00C8      01020     MOVWF LRAM_0x34
gpasm-0.13.7 beta               ik3oilcounter_PIC16F628.asm4-8-2015  11:41:29           PAGE 20


LOC  OBJECT CODE     LINE SOURCE TEXT
  VALUE
 
035C 217E      01021     CALL LADR_0x017E
035D 082A      01022     MOVF LRAM_0x16,W
035E 00A0      01023     MOVWF LRAM_0x0C
035F 2361      01024     CALL LADR_0x0361
0360 0008      01025     RETURN
0361 01026 LADR_0x0361
0361 0E20      01027     SWAPF LRAM_0x0C,W
0362 390F      01028     ANDLW 0x0F           ;   b'00001111'  d'015'
0363 3820      01029     IORLW 0x20           ;   b'00100000'  d'032'  " "
0364 0086      01030     MOVWF PORTB          ; !!Bank!! PORTB - TRISB
0365 1286      01031     BCF PORTB,5          ; !!Bank!! PORTB - TRISB
0366 23D0      01032     CALL LADR_0x03D0
0367 0820      01033     MOVF LRAM_0x0C,W
0368 390F      01034     ANDLW 0x0F           ;   b'00001111'  d'015'
0369 3820      01035     IORLW 0x20           ;   b'00100000'  d'032'  " "
036A 0086      01036     MOVWF PORTB          ; !!Bank!! PORTB - TRISB
036B 1286      01037     BCF PORTB,5          ; !!Bank!! PORTB - TRISB
036C 23D0      01038     CALL LADR_0x03D0
036D 0008      01039     RETURN
036E 01040 LADR_0x036E
036E 0E20      01041     SWAPF LRAM_0x0C,W
036F 390F      01042     ANDLW 0x0F           ;   b'00001111'  d'015'
0370 3830      01043     IORLW 0x30           ;   b'00110000'  d'048'  "0"
0371 0086      01044     MOVWF PORTB          ; !!Bank!! PORTB - TRISB
0372 1286      01045     BCF PORTB,5          ; !!Bank!! PORTB - TRISB
0373 23D0      01046     CALL LADR_0x03D0
0374 0820      01047     MOVF LRAM_0x0C,W
0375 390F      01048     ANDLW 0x0F           ;   b'00001111'  d'015'
0376 3830      01049     IORLW 0x30           ;   b'00110000'  d'048'  "0"
0377 0086      01050     MOVWF PORTB          ; !!Bank!! PORTB - TRISB
0378 1286      01051     BCF PORTB,5          ; !!Bank!! PORTB - TRISB
0379 23D0      01052     CALL LADR_0x03D0
037A 0008      01053     RETURN
037B 01054 LADR_0x037B
037B 3006      01055     MOVLW 0x06           ;   b'00000110'  d'006'
037C 00A1      01056     MOVWF LRAM_0x0D
Message [302] : Register in operand not in bank 0. Ensure bank bits are correct.
037D 019B      01057     CLRF EEADR           ; !!Bank!! EEADR - EECON2
037E 302C      01058     MOVLW 0x2C           ;   b'00101100'  d'044'  ","
037F 0084      01059     MOVWF FSR
0380 01060 LADR_0x0380
0380 1683      01061     BSF STATUS,RP0       ; !!Bank Register-Bank(0/1)-Select
Message [302] : Register in operand not in bank 0. Ensure bank bits are correct.
0381 141A      01062     BSF EEDATA,0         ; !!Bank!! EEDATA - EECON1
0382 1283      01063     BCF STATUS,RP0       ; !!Bank Register-Bank(0/1)-Select
Message [302] : Register in operand not in bank 0. Ensure bank bits are correct.
0383 081A      01064     MOVF EEDATA,W        ; !!Bank!! EEDATA - EECON1
0384 0080      01065     MOVWF INDF
Message [302] : Register in operand not in bank 0. Ensure bank bits are correct.
0385 0A9B      01066     INCF EEADR,F         ; !!Bank!! EEADR - EECON2
0386 0A84      01067     INCF FSR,F
0387 0BA1      01068     DECFSZ LRAM_0x0D,F
0388 2B80      01069     GOTO LADR_0x0380
0389 0008      01070     RETURN
gpasm-0.13.7 beta               ik3oilcounter_PIC16F628.asm4-8-2015  11:41:29           PAGE 21


LOC  OBJECT CODE     LINE SOURCE TEXT
  VALUE
 
038A 01071 LADR_0x038A
038A 3006      01072     MOVLW 0x06           ;   b'00000110'  d'006'
038B 00A1      01073     MOVWF LRAM_0x0D
Message [302] : Register in operand not in bank 0. Ensure bank bits are correct.
038C 019B      01074     CLRF EEADR           ; !!Bank!! EEADR - EECON2
038D 302C      01075     MOVLW 0x2C           ;   b'00101100'  d'044'  ","
038E 0084      01076     MOVWF FSR
038F 1683      01077     BSF STATUS,RP0       ; !!Bank Register-Bank(0/1)-Select
Message [302] : Register in operand not in bank 0. Ensure bank bits are correct.
0390 151A      01078     BSF EEDATA,2         ; !!Bank!! EEDATA - EECON1
0391 1283      01079     BCF STATUS,RP0       ; !!Bank Register-Bank(0/1)-Select
0392 01080 LADR_0x0392
0392 0800      01081     MOVF INDF,W
Message [302] : Register in operand not in bank 0. Ensure bank bits are correct.
0393 009A      01082     MOVWF EEDATA         ; !!Bank!! EEDATA - EECON1
0394 1683      01083     BSF STATUS,RP0       ; !!Bank Register-Bank(0/1)-Select
0395 3055      01084     MOVLW 0x55           ;   b'01010101'  d'085'  "U"
Message [302] : Register in operand not in bank 0. Ensure bank bits are correct.
0396 009B      01085     MOVWF EEADR          ; !!Bank!! EEADR - EECON2
0397 30AA      01086     MOVLW 0xAA           ;   b'10101010'  d'170'
Message [302] : Register in operand not in bank 0. Ensure bank bits are correct.
0398 009B      01087     MOVWF EEADR          ; !!Bank!! EEADR - EECON2
Message [302] : Register in operand not in bank 0. Ensure bank bits are correct.
0399 149A      01088     BSF EEDATA,1         ; !!Bank!! EEDATA - EECON1
039A 01089 LADR_0x039A
Message [302] : Register in operand not in bank 0. Ensure bank bits are correct.
039A 1E1A      01090     BTFSS EEDATA,4       ; !!Bank!! EEDATA - EECON1
039B 2B9A      01091     GOTO LADR_0x039A
Message [302] : Register in operand not in bank 0. Ensure bank bits are correct.
039C 121A      01092     BCF EEDATA,4         ; !!Bank!! EEDATA - EECON1
039D 1283      01093     BCF STATUS,RP0       ; !!Bank Register-Bank(0/1)-Select
Message [302] : Register in operand not in bank 0. Ensure bank bits are correct.
039E 0A9B      01094     INCF EEADR,F         ; !!Bank!! EEADR - EECON2
039F 0A84      01095     INCF FSR,F
03A0 0BA1      01096     DECFSZ LRAM_0x0D,F
03A1 2B92      01097     GOTO LADR_0x0392
03A2 1283      01098     BCF STATUS,RP0       ; !!Bank Register-Bank(0/1)-Select
03A3 0008      01099     RETURN
03A4 01100 LADR_0x03A4
03A4 30C5      01101     MOVLW 0xC5           ;   b'11000101'  d'197'
03A5 00CF      01102     MOVWF LRAM_0x3B
03A6 01103 LADR_0x03A6
03A6 2BA7      01104     GOTO LADR_0x03A7
03A7 01105 LADR_0x03A7
03A7 0BCF      01106     DECFSZ LRAM_0x3B,F
03A8 2BA6      01107     GOTO LADR_0x03A6
03A9 1D0B      01108     BTFSS INTCON,T0IF
03AA 2BAE      01109     GOTO LADR_0x03AE
03AB 0ACC      01110     INCF LRAM_0x38,F
03AC 110B      01111     BCF INTCON,T0IF
03AD 2BB0      01112     GOTO LADR_0x03B0
03AE 01113 LADR_0x03AE
03AE 0000      01114     NOP
03AF 2BB0      01115     GOTO LADR_0x03B0
gpasm-0.13.7 beta               ik3oilcounter_PIC16F628.asm4-8-2015  11:41:29           PAGE 22


LOC  OBJECT CODE     LINE SOURCE TEXT
  VALUE
 
03B0 01116 LADR_0x03B0
03B0 0000      01117     NOP
03B1 2BB2      01118     GOTO LADR_0x03B2
03B2 01119 LADR_0x03B2
03B2 0008      01120     RETURN
03B3 01121 LADR_0x03B3
03B3 23A4      01122     CALL LADR_0x03A4
03B4 23A4      01123     CALL LADR_0x03A4
03B5 23A4      01124     CALL LADR_0x03A4
03B6 23A4      01125     CALL LADR_0x03A4
03B7 23A4      01126     CALL LADR_0x03A4
03B8 23A4      01127     CALL LADR_0x03A4
03B9 23A4      01128     CALL LADR_0x03A4
03BA 23A4      01129     CALL LADR_0x03A4
03BB 23A4      01130     CALL LADR_0x03A4
03BC 23A4      01131     CALL LADR_0x03A4
03BD 2BBE      01132     GOTO LADR_0x03BE
03BE 01133 LADR_0x03BE
03BE 0008      01134     RETURN
03BF 01135 LADR_0x03BF
03BF 300A      01136     MOVLW 0x0A           ;   b'00001010'  d'010'
03C0 00D2      01137     MOVWF LRAM_0x3E
03C1 01138 LADR_0x03C1
03C1 23B3      01139     CALL LADR_0x03B3
03C2 0BD2      01140     DECFSZ LRAM_0x3E,F
03C3 2BC1      01141     GOTO LADR_0x03C1
03C4 2BC5      01142     GOTO LADR_0x03C5
03C5 01143 LADR_0x03C5
03C5 0008      01144     RETURN
03C6 01145 LADR_0x03C6
03C6 3020      01146     MOVLW 0x20           ;   b'00100000'  d'032'  " "
03C7 00D2      01147     MOVWF LRAM_0x3E
03C8 01148 LADR_0x03C8
03C8 23B3      01149     CALL LADR_0x03B3
03C9 0BD2      01150     DECFSZ LRAM_0x3E,F
03CA 2BC8      01151     GOTO LADR_0x03C8
03CB 3009      01152     MOVLW 0x09           ;   b'00001001'  d'009'
03CC 00D2      01153     MOVWF LRAM_0x3E
03CD 01154 LADR_0x03CD
03CD 0BD2      01155     DECFSZ LRAM_0x3E,F
03CE 2BCD      01156     GOTO LADR_0x03CD
03CF 0008      01157     RETURN
03D0 01158 LADR_0x03D0
03D0 3014      01159     MOVLW 0x14           ;   b'00010100'  d'020'
03D1 00D2      01160     MOVWF LRAM_0x3E
03D2 01161 LADR_0x03D2
03D2 0000      01162     NOP
03D3 0000      01163     NOP
03D4 0BD2      01164     DECFSZ LRAM_0x3E,F
03D5 2BD2      01165     GOTO LADR_0x03D2
03D6 0008      01166     RETURN
               01167 
gpasm-0.13.7 beta               ik3oilcounter_PIC16F628.asm4-8-2015  11:41:29           PAGE 23


SYMBOL TABLE
  LABEL                             VALUE 

ADEN                              00000003
BRGH                              00000002
C                                 00000000
C1INV                             00000004
C1OUT                             00000006
C2INV                             00000005
C2OUT                             00000007
CCP1CON                           00000017
CCP1IE                            00000002
CCP1IF                            00000002
CCP1M0                            00000000
CCP1M1                            00000001
CCP1M2                            00000002
CCP1M3                            00000003
CCP1X                             00000005
CCP1Y                             00000004
CCPR1H                            00000016
CCPR1L                            00000015
CIS                               00000003
CM0                               00000000
CM1                               00000001
CM2                               00000002
CMCON                             0000001F
CMIE                              00000006
CMIF                              00000006
CREN                              00000004
CSRC                              00000007
DC                                00000001
EEADR                             0000009B
EECON1                            0000009C
EECON2                            0000009D
EEDATA                            0000009A
EEIE                              00000007
EEIF                              00000007
F                                 00000001
FERR                              00000002
FSR                               00000004
GIE                               00000007
INDF                              00000000
INTCON                            0000000B
INTE                              00000004
INTEDG                            00000006
INTF                              00000001
IRP                               00000007
LADR_0x0005                       00000005
LADR_0x003F                       0000003F
LADR_0x0056                       00000056
LADR_0x006C                       0000006C
LADR_0x006D                       0000006D
LADR_0x007A                       0000007A
LADR_0x0081                       00000081
LADR_0x008C                       0000008C
LADR_0x0096                       00000096
gpasm-0.13.7 beta               ik3oilcounter_PIC16F628.asm4-8-2015  11:41:29           PAGE 24


LOC  OBJECT CODE     LINE SOURCE TEXT
  VALUE
 
LADR_0x009D                       0000009D
LADR_0x00A5                       000000A5
LADR_0x00A7                       000000A7
LADR_0x00AC                       000000AC
LADR_0x00B1                       000000B1
LADR_0x00B7                       000000B7
LADR_0x00B8                       000000B8
LADR_0x00BD                       000000BD
LADR_0x00C4                       000000C4
LADR_0x00C5                       000000C5
LADR_0x00C9                       000000C9
LADR_0x00CE                       000000CE
LADR_0x00D5                       000000D5
LADR_0x00D6                       000000D6
LADR_0x00DB                       000000DB
LADR_0x00E1                       000000E1
LADR_0x00E3                       000000E3
LADR_0x00EA                       000000EA
LADR_0x00EC                       000000EC
LADR_0x00EF                       000000EF
LADR_0x00F8                       000000F8
LADR_0x00FE                       000000FE
LADR_0x00FF                       000000FF
LADR_0x0100                       00000100
LADR_0x0111                       00000111
LADR_0x012E                       0000012E
LADR_0x0141                       00000141
LADR_0x014E                       0000014E
LADR_0x015C                       0000015C
LADR_0x0160                       00000160
LADR_0x0164                       00000164
LADR_0x017E                       0000017E
LADR_0x017F                       0000017F
LADR_0x018D                       0000018D
LADR_0x01A3                       000001A3
LADR_0x01A4                       000001A4
LADR_0x01A5                       000001A5
LADR_0x01B3                       000001B3
LADR_0x01CB                       000001CB
LADR_0x01CC                       000001CC
LADR_0x01CD                       000001CD
LADR_0x01DB                       000001DB
LADR_0x01EE                       000001EE
LADR_0x01EF                       000001EF
LADR_0x01F6                       000001F6
LADR_0x01FF                       000001FF
LADR_0x020B                       0000020B
LADR_0x020E                       0000020E
LADR_0x0211                       00000211
LADR_0x0218                       00000218
LADR_0x0221                       00000221
LADR_0x022D                       0000022D
LADR_0x0230                       00000230
LADR_0x0233                       00000233
gpasm-0.13.7 beta               ik3oilcounter_PIC16F628.asm4-8-2015  11:41:29           PAGE 25


LOC  OBJECT CODE     LINE SOURCE TEXT
  VALUE
 
LADR_0x0234                       00000234
LADR_0x023B                       0000023B
LADR_0x0242                       00000242
LADR_0x024F                       0000024F
LADR_0x025F                       0000025F
LADR_0x026B                       0000026B
LADR_0x027B                       0000027B
LADR_0x0288                       00000288
LADR_0x028B                       0000028B
LADR_0x028F                       0000028F
LADR_0x029B                       0000029B
LADR_0x02A0                       000002A0
LADR_0x02A4                       000002A4
LADR_0x02A9                       000002A9
LADR_0x02AB                       000002AB
LADR_0x02AD                       000002AD
LADR_0x02B1                       000002B1
LADR_0x02B3                       000002B3
LADR_0x02BF                       000002BF
LADR_0x02C6                       000002C6
LADR_0x02CC                       000002CC
LADR_0x02D2                       000002D2
LADR_0x02DF                       000002DF
LADR_0x02EC                       000002EC
LADR_0x0301                       00000301
LADR_0x0316                       00000316
LADR_0x0337                       00000337
LADR_0x033E                       0000033E
LADR_0x0349                       00000349
LADR_0x0350                       00000350
LADR_0x0355                       00000355
LADR_0x035A                       0000035A
LADR_0x0361                       00000361
LADR_0x036E                       0000036E
LADR_0x037B                       0000037B
LADR_0x0380                       00000380
LADR_0x038A                       0000038A
LADR_0x0392                       00000392
LADR_0x039A                       0000039A
LADR_0x03A4                       000003A4
LADR_0x03A6                       000003A6
LADR_0x03A7                       000003A7
LADR_0x03AE                       000003AE
LADR_0x03B0                       000003B0
LADR_0x03B2                       000003B2
LADR_0x03B3                       000003B3
LADR_0x03BE                       000003BE
LADR_0x03BF                       000003BF
LADR_0x03C1                       000003C1
LADR_0x03C5                       000003C5
LADR_0x03C6                       000003C6
LADR_0x03C8                       000003C8
LADR_0x03CD                       000003CD
LADR_0x03D0                       000003D0
gpasm-0.13.7 beta               ik3oilcounter_PIC16F628.asm4-8-2015  11:41:29           PAGE 26


LOC  OBJECT CODE     LINE SOURCE TEXT
  VALUE
 
LADR_0x03D2                       000003D2
LRAM_0x0C                         00000020
LRAM_0x0D                         00000021
LRAM_0x0E                         00000022
LRAM_0x0F                         00000023
LRAM_0x10                         00000024
LRAM_0x11                         00000025
LRAM_0x12                         00000026
LRAM_0x13                         00000027
LRAM_0x14                         00000028
LRAM_0x15                         00000029
LRAM_0x16                         0000002A
LRAM_0x17                         0000002B
LRAM_0x18                         0000002C
LRAM_0x19                         0000002D
LRAM_0x1A                         0000002E
LRAM_0x1B                         0000002F
LRAM_0x1C                         00000030
LRAM_0x1D                         00000031
LRAM_0x1E                         00000032
LRAM_0x1F                         00000033
LRAM_0x20                         00000034
LRAM_0x21                         00000035
LRAM_0x22                         00000036
LRAM_0x23                         00000037
LRAM_0x24                         00000038
LRAM_0x25                         00000039
LRAM_0x26                         0000003A
LRAM_0x27                         0000003B
LRAM_0x28                         0000003C
LRAM_0x29                         0000003D
LRAM_0x2A                         0000003E
LRAM_0x2B                         0000003F
LRAM_0x30                         00000044
LRAM_0x31                         00000045
LRAM_0x32                         00000046
LRAM_0x33                         00000047
LRAM_0x34                         00000048
LRAM_0x35                         00000049
LRAM_0x36                         0000004A
LRAM_0x37                         0000004B
LRAM_0x38                         0000004C
LRAM_0x39                         0000004D
LRAM_0x3A                         0000004E
LRAM_0x3B                         0000004F
LRAM_0x3C                         00000050
LRAM_0x3D                         00000051
LRAM_0x3E                         00000052
LRAM_0x3F                         00000053
NOT_BO                            00000000
NOT_BOD                           00000000
NOT_BOR                           00000000
NOT_PD                            00000003
NOT_POR                           00000001
gpasm-0.13.7 beta               ik3oilcounter_PIC16F628.asm4-8-2015  11:41:29           PAGE 27


LOC  OBJECT CODE     LINE SOURCE TEXT
  VALUE
 
NOT_RBPU                          00000007
NOT_T1SYNC                        00000002
NOT_TO                            00000004
OERR                              00000001
OPTION_REG                        00000081
OSCF                              00000003
PCL                               00000002
PCLATH                            0000000A
PCON                              0000008E
PEIE                              00000006
PIE1                              0000008C
PIR1                              0000000C
PORTA                             00000005
PORTB                             00000006
PR2                               00000092
PS0                               00000000
PS1                               00000001
PS2                               00000002
PSA                               00000003
RBIE                              00000003
RBIF                              00000000
RCIE                              00000005
RCIF                              00000005
RCREG                             0000001A
RCSTA                             00000018
RD                                00000000
RP0                               00000005
RP1                               00000006
RX9                               00000006
RX9D                              00000000
SPBRG                             00000099
SPEN                              00000007
SREN                              00000005
STATUS                            00000003
SYNC                              00000004
T0CS                              00000005
T0IE                              00000005
T0IF                              00000002
T0SE                              00000004
T1CKPS0                           00000004
T1CKPS1                           00000005
T1CON                             00000010
T1OSCEN                           00000003
T2CKPS0                           00000000
T2CKPS1                           00000001
T2CON                             00000012
TMR0                              00000001
TMR1CS                            00000001
TMR1H                             0000000F
TMR1IE                            00000000
TMR1IF                            00000000
TMR1L                             0000000E
TMR1ON                            00000000
TMR2                              00000011
gpasm-0.13.7 beta               ik3oilcounter_PIC16F628.asm4-8-2015  11:41:29           PAGE 28


LOC  OBJECT CODE     LINE SOURCE TEXT
  VALUE
 
TMR2IE                            00000001
TMR2IF                            00000001
TMR2ON                            00000002
TOUTPS0                           00000003
TOUTPS1                           00000004
TOUTPS2                           00000005
TOUTPS3                           00000006
TRISA                             00000085
TRISB                             00000086
TRMT                              00000001
TX9                               00000006
TX9D                              00000000
TXEN                              00000005
TXIE                              00000004
TXIF                              00000004
TXREG                             00000019
TXSTA                             00000098
VR0                               00000000
VR1                               00000001
VR2                               00000002
VR3                               00000003
VRCON                             0000009F
VREN                              00000007
VROE                              00000006
VRR                               00000005
W                                 00000000
WR                                00000001
WREN                              00000002
WRERR                             00000003
Z                                 00000002
_BODEN_OFF                        00003FBF
_BODEN_ON                         00003FFF
_BOREN_OFF                        00003FBF
_BOREN_ON                         00003FFF
_CP_OFF                           00003FFF
_CP_ON                            00001FFF
_DATA_CP_OFF                      00003FFF
_DATA_CP_ON                       00003EFF
_ER_OSC_CLKOUT                    00003FFF
_ER_OSC_NOCLKOUT                  00003FFE
_EXTCLK_OSC                       00003FEF
_HS_OSC                           00003FEE
_INTOSC_OSC_CLKOUT                00003FFD
_INTOSC_OSC_NOCLKOUT              00003FFC
_INTRC_OSC_CLKOUT                 00003FFD
_INTRC_OSC_NOCLKOUT               00003FFC
_LP_OSC                           00003FEC
_LVP_OFF                          00003F7F
_LVP_ON                           00003FFF
_MCLRE_OFF                        00003FDF
_MCLRE_ON                         00003FFF
_PWRTE_OFF                        00003FFF
_PWRTE_ON                         00003FF7
_RC_OSC_CLKOUT                    00003FFF
gpasm-0.13.7 beta               ik3oilcounter_PIC16F628.asm4-8-2015  11:41:29           PAGE 29


LOC  OBJECT CODE     LINE SOURCE TEXT
  VALUE
 
_RC_OSC_NOCLKOUT                  00003FFE
_WDT_OFF                          00003FFB
_WDT_ON                           00003FFF
_XT_OSC                           00003FED
__16F628A                         00000001


MEMORY USAGE MAP ('X' = Used,  '-' = Unused)

00000000 : X---XXXXXXXXXXXX XXXXXXXXXXXXXXXX XXXXXXXXXXXXXXXX XXXXXXXXXXXXXXXX
00000040 : XXXXXXXXXXXXXXXX XXXXXXXXXXXXXXXX XXXXXXXXXXXXXXXX XXXXXXXXXXXXXXXX
00000080 : XXXXXXXXXXXXXXXX XXXXXXXXXXXXXXXX XXXXXXXXXXXXXXXX XXXXXXXXXXXXXXXX
000000c0 : XXXXXXXXXXXXXXXX XXXXXXXXXXXXXXXX XXXXXXXXXXXXXXXX XXXXXXXXXXXXXXXX
00000100 : XXXXXXXXXXXXXXXX XXXXXXXXXXXXXXXX XXXXXXXXXXXXXXXX XXXXXXXXXXXXXXXX
00000140 : XXXXXXXXXXXXXXXX XXXXXXXXXXXXXXXX XXXXXXXXXXXXXXXX XXXXXXXXXXXXXXXX
00000180 : XXXXXXXXXXXXXXXX XXXXXXXXXXXXXXXX XXXXXXXXXXXXXXXX XXXXXXXXXXXXXXXX
000001c0 : XXXXXXXXXXXXXXXX XXXXXXXXXXXXXXXX XXXXXXXXXXXXXXXX XXXXXXXXXXXXXXXX
00000200 : XXXXXXXXXXXXXXXX XXXXXXXXXXXXXXXX XXXXXXXXXXXXXXXX XXXXXXXXXXXXXXXX
00000240 : XXXXXXXXXXXXXXXX XXXXXXXXXXXXXXXX XXXXXXXXXXXXXXXX XXXXXXXXXXXXXXXX
00000280 : XXXXXXXXXXXXXXXX XXXXXXXXXXXXXXXX XXXXXXXXXXXXXXXX XXXXXXXXXXXXXXXX
000002c0 : XXXXXXXXXXXXXXXX XXXXXXXXXXXXXXXX XXXXXXXXXXXXXXXX XXXXXXXXXXXXXXXX
00000300 : XXXXXXXXXXXXXXXX XXXXXXXXXXXXXXXX XXXXXXXXXXXXXXXX XXXXXXXXXXXXXXXX
00000340 : XXXXXXXXXXXXXXXX XXXXXXXXXXXXXXXX XXXXXXXXXXXXXXXX XXXXXXXXXXXXXXXX
00000380 : XXXXXXXXXXXXXXXX XXXXXXXXXXXXXXXX XXXXXXXXXXXXXXXX XXXXXXXXXXXXXXXX
000003c0 : XXXXXXXXXXXXXXXX XXXXXXX--------- ---------------- ----------------
00002000 : -------X-------- ---------------- ---------------- ----------------
00002100 : XXXXXX---------- ---------------- ---------------- ----------------

All other memory blocks unused.

Program Memory Words Used: 987


Errors   :       0
Warnings :       0 reported,       0 suppressed
Messages :      13 reported,       0 suppressed

